; Function Attrs: nounwind uwtable
define void @Gia_ManDumpSuppFileTest3(ptr noundef %0, ptr noundef %1) local_unnamed_addr #2 {
  %3 = tail call ptr @Gia_ManComputeSupports(ptr noundef %0)
  %4 = tail call ptr @Gia_ManComputeSharing(ptr noundef %3)
  %5 = tail call ptr @Gia_ManComputeSharing(ptr noundef %4)
  %6 = tail call ptr @Gia_ManConvertDump(ptr noundef %0, ptr noundef %5)
  tail call void @Gia_ManDumpSuppFile(ptr noundef %6, ptr noundef %1)
  %7 = load i32, ptr %5, align 8
  %8 = icmp sgt i32 %7, 0
  %9 = getelementptr inbounds nuw i8, ptr %5, i64 8
  %10 = load ptr, ptr %9, align 8
  br i1 %8, label %.lr.ph.i.i, label %._crit_edge.i.i

.lr.ph.i.i:                                       ; preds = %2
  %11 = zext nneg i32 %7 to i64
  br label %12

12:                                               ; preds = %16, %.lr.ph.i.i
  %indvars.iv.i.i = phi i64 [ 0, %.lr.ph.i.i ], [ %indvars.iv.next.i.i, %16 ]
  %13 = getelementptr inbounds nuw %struct.Vec_Int_t_, ptr %10, i64 %indvars.iv.i.i, i32 2
  %14 = load ptr, ptr %13, align 8
  %.not15.i.i = icmp eq ptr %14, null
  br i1 %.not15.i.i, label %16, label %15

15:                                               ; preds = %12
  tail call void @free(ptr noundef nonnull %14) #36
  store ptr null, ptr %13, align 8
  br label %16

16:                                               ; preds = %15, %12
  %indvars.iv.next.i.i = add nuw nsw i64 %indvars.iv.i.i, 1
  %exitcond.not = icmp eq i64 %indvars.iv.next.i.i, %11
  br i1 %exitcond.not, label %._crit_edge.i.i.thread, label %12, !llvm.loop !111

._crit_edge.i.i:                                  ; preds = %2
  %.not.i.i = icmp eq ptr %10, null
  br i1 %.not.i.i, label %Vec_WecFree.exit, label %._crit_edge.i.i.thread

._crit_edge.i.i.thread:                           ; preds = %16, %._crit_edge.i.i
  tail call void @free(ptr noundef nonnull %10) #36
  br label %Vec_WecFree.exit

Vec_WecFree.exit:                                 ; preds = %._crit_edge.i.i, %._crit_edge.i.i.thread
  tail call void @free(ptr noundef nonnull %5) #36
  %17 = load i32, ptr %4, align 8
  %18 = icmp sgt i32 %17, 0
  %19 = getelementptr inbounds nuw i8, ptr %4, i64 8
  %20 = load ptr, ptr %19, align 8
  br i1 %18, label %.lr.ph.i.i13, label %._crit_edge.i.i11

.lr.ph.i.i13:                                     ; preds = %Vec_WecFree.exit
  %21 = zext nneg i32 %17 to i64
  br label %22

22:                                               ; preds = %26, %.lr.ph.i.i13
  %indvars.iv.i.i14 = phi i64 [ 0, %.lr.ph.i.i13 ], [ %indvars.iv.next.i.i17, %26 ]
  %23 = getelementptr inbounds nuw %struct.Vec_Int_t_, ptr %20, i64 %indvars.iv.i.i14, i32 2
  %24 = load ptr, ptr %23, align 8
  %.not15.i.i15 = icmp eq ptr %24, null
  br i1 %.not15.i.i15, label %26, label %25

25:                                               ; preds = %22
  tail call void @free(ptr noundef nonnull %24) #36
  store ptr null, ptr %23, align 8
  br label %26

26:                                               ; preds = %25, %22
  %indvars.iv.next.i.i17 = add nuw nsw i64 %indvars.iv.i.i14, 1
  %exitcond27.not = icmp eq i64 %indvars.iv.next.i.i17, %21
  br i1 %exitcond27.not, label %._crit_edge.i.i11.thread, label %22, !llvm.loop !111

._crit_edge.i.i11:                                ; preds = %Vec_WecFree.exit
  %.not.i.i12 = icmp eq ptr %20, null
  br i1 %.not.i.i12, label %Vec_WecFree.exit18, label %._crit_edge.i.i11.thread

._crit_edge.i.i11.thread:                         ; preds = %26, %._crit_edge.i.i11
  tail call void @free(ptr noundef nonnull %20) #36
  br label %Vec_WecFree.exit18

Vec_WecFree.exit18:                               ; preds = %._crit_edge.i.i11, %._crit_edge.i.i11.thread
  tail call void @free(ptr noundef nonnull %4) #36
  %27 = load i32, ptr %3, align 8
  %28 = icmp sgt i32 %27, 0
  %29 = getelementptr inbounds nuw i8, ptr %3, i64 8
  %30 = load ptr, ptr %29, align 8
  br i1 %28, label %.lr.ph.i.i21, label %._crit_edge.i.i19

.lr.ph.i.i21:                                     ; preds = %Vec_WecFree.exit18
  %31 = zext nneg i32 %27 to i64
  br label %32

32:                                               ; preds = %36, %.lr.ph.i.i21
  %indvars.iv.i.i22 = phi i64 [ 0, %.lr.ph.i.i21 ], [ %indvars.iv.next.i.i25, %36 ]
  %33 = getelementptr inbounds nuw %struct.Vec_Int_t_, ptr %30, i64 %indvars.iv.i.i22, i32 2
  %34 = load ptr, ptr %33, align 8
  %.not15.i.i23 = icmp eq ptr %34, null
  br i1 %.not15.i.i23, label %36, label %35

35:                                               ; preds = %32
  tail call void @free(ptr noundef nonnull %34) #36
  store ptr null, ptr %33, align 8
  br label %36

36:                                               ; preds = %35, %32
  %indvars.iv.next.i.i25 = add nuw nsw i64 %indvars.iv.i.i22, 1
  %exitcond28.not = icmp eq i64 %indvars.iv.next.i.i25, %31
  br i1 %exitcond28.not, label %._crit_edge.i.i19.thread, label %32, !llvm.loop !111

._crit_edge.i.i19:                                ; preds = %Vec_WecFree.exit18
  %.not.i.i20 = icmp eq ptr %30, null
  br i1 %.not.i.i20, label %Vec_WecFree.exit26, label %._crit_edge.i.i19.thread

._crit_edge.i.i19.thread:                         ; preds = %36, %._crit_edge.i.i19
  tail call void @free(ptr noundef nonnull %30) #36
  br label %Vec_WecFree.exit26

Vec_WecFree.exit26:                               ; preds = %._crit_edge.i.i19, %._crit_edge.i.i19.thread
  tail call void @free(ptr noundef nonnull %3) #36
  %37 = getelementptr inbounds nuw i8, ptr %6, i64 8
  %38 = load ptr, ptr %37, align 8
  %.not.i = icmp eq ptr %38, null
  br i1 %.not.i, label %Vec_StrFree.exit, label %39

39:                                               ; preds = %Vec_WecFree.exit26
  tail call void @free(ptr noundef nonnull %38) #36
  br label %Vec_StrFree.exit

Vec_StrFree.exit:                                 ; preds = %Vec_WecFree.exit26, %39
  tail call void @free(ptr noundef nonnull %6) #36
  ret void
}